; Function Attrs: mustprogress nounwind uwtable
define internal void @_ZN12_GLOBAL__N_110MultiPieceD0Ev(ptr noundef nonnull align 8 dereferenceable(40) initializes((0, 8)) %0) unnamed_addr #0 align 2 {
  store ptr getelementptr inbounds nuw inrange(-16, 16) (i8, ptr @_ZTVN12_GLOBAL__N_110MultiPieceE, i64 16), ptr %0, align 8
  %2 = getelementptr inbounds nuw i8, ptr %0, i64 16
  %.val.i = load ptr, ptr %2, align 8
  %.not.i.i.i.i = icmp eq ptr %.val.i, null
  br i1 %.not.i.i.i.i, label %_ZN12_GLOBAL__N_110MultiPieceD2Ev.exit, label %3

3:                                                ; preds = %1
  %4 = getelementptr inbounds nuw i8, ptr %0, i64 32
  %.val1.i = load ptr, ptr %4, align 8
  %5 = ptrtoint ptr %.val1.i to i64
  %6 = ptrtoint ptr %.val.i to i64
  %7 = sub i64 %5, %6
  tail call void @_ZdlPvm(ptr noundef nonnull %.val.i, i64 noundef %7) #22
  br label %_ZN12_GLOBAL__N_110MultiPieceD2Ev.exit

_ZN12_GLOBAL__N_110MultiPieceD2Ev.exit:           ; preds = %1, %3
  tail call void @_ZdlPvm(ptr noundef nonnull %0, i64 noundef 40) #22
  ret void
}